target datalayout = "e-m:e-p270:32:32-p271:32:32-p272:64:64-i64:64-i128:128-f80:128-n8:16:32:64-S128"
target triple = "x86_64-pc-linux-gnu"

%struct.AVChannelLayout = type { i32, i32, %union.anon.0, ptr }
%union.anon.0 = type { i64 }
%struct.AVCodecContext = type { ptr, i32, i32, ptr, i32, i32, ptr, ptr, ptr, i64, i32, i32, ptr, i32, %struct.AVRational, %struct.AVRational, %struct.AVRational, i32, i32, i32, i32, i32, %struct.AVRational, i32, i32, i32, i32, i32, i32, i32, i32, i32, i32, i32, ptr, ptr, i32, float, float, float, float, float, float, float, float, float, i32, i32, i32, i32, i32, i32, i32, i32, i32, i32, i32, i32, ptr, ptr, ptr, i32, i32, i32, i32, i32, i32, i32, i32, i32, i32, %struct.AVChannelLayout, i32, i32, i32, i32, i32, i32, i32, i32, ptr, i32, i32, i32, float, float, i32, i32, i32, i32, i32, ptr, i64, i64, float, float, i32, i32, ptr, ptr, i32, i32, i32, i32, i32, ptr, ptr, ptr, ptr, i32, i32, [8 x i64], i32, i32, i32, i32, i32, i32, i32, ptr, ptr, i32, i32, i32, i32, i32, i32, i32, i32, i32, i32, ptr, ptr, i32, i32, ptr, ptr, ptr, ptr, i32, i32, i64, i32, i32, i64, ptr, i64, ptr, i32, ptr, i32 }
%struct.AVRational = type { i32, i32 }
%struct.SirenContext = type { %struct.GetBitContext, i32, i32, i32, i32, i32, i32, i32, i32, i32, i32, i32, [32 x i32], [32 x float], [32 x i32], [32 x i32], [64 x float], [320 x float], ptr, ptr, ptr, [8 x i8], [4 x [320 x float]], ptr, ptr, ptr, ptr }
%struct.GetBitContext = type { ptr, ptr, i32, i32, i32 }

; Function Attrs: cold nounwind optsize uwtable
define internal void @siren_flush(ptr noundef %0) #0 {
  %2 = alloca ptr, align 8
  %3 = alloca ptr, align 8
  store ptr %0, ptr %2, align 8, !tbaa !4
  call void @llvm.lifetime.start.p0(i64 8, ptr %3) #9
  %4 = load ptr, ptr %2, align 8, !tbaa !4
  %5 = getelementptr inbounds nuw %struct.AVCodecContext, ptr %4, i32 0, i32 6
  %6 = load ptr, ptr %5, align 8, !tbaa !11
  store ptr %6, ptr %3, align 8, !tbaa !30
  %7 = load ptr, ptr %3, align 8, !tbaa !30
  %8 = getelementptr inbounds nuw %struct.SirenContext, ptr %7, i32 0, i32 17
  %9 = getelementptr inbounds [320 x float], ptr %8, i64 0, i64 0
  call void @llvm.memset.p0.i64(ptr align 4 %9, i8 0, i64 1280, i1 false)
  %10 = load ptr, ptr %3, align 8, !tbaa !30
  %11 = getelementptr inbounds nuw %struct.SirenContext, ptr %10, i32 0, i32 26
  %12 = load ptr, ptr %11, align 8, !tbaa !39
  call void @llvm.memset.p0.i64(ptr align 4 %12, i8 0, i64 1280, i1 false)
  %13 = load ptr, ptr %3, align 8, !tbaa !30
  %14 = getelementptr inbounds nuw %struct.SirenContext, ptr %13, i32 0, i32 25
  %15 = load ptr, ptr %14, align 16, !tbaa !38
  call void @llvm.memset.p0.i64(ptr align 4 %15, i8 0, i64 1280, i1 false)
  call void @llvm.lifetime.end.p0(i64 8, ptr %3) #9
  ret void
}