; Function Attrs: cold mustprogress nofree norecurse nosync nounwind optsize willreturn memory(readwrite, inaccessiblemem: none) uwtable
define internal void @siren_flush(ptr noundef readonly captures(none) %0) #2 {
  %2 = getelementptr inbounds nuw i8, ptr %0, i64 32
  %3 = load ptr, ptr %2, align 8, !tbaa !8
  %4 = getelementptr inbounds nuw i8, ptr %3, i64 844
  tail call void @llvm.memset.p0.i64(ptr noundef nonnull align 4 dereferenceable(1280) %4, i8 0, i64 1280, i1 false)
  %5 = getelementptr inbounds nuw i8, ptr %3, i64 7304
  %6 = load ptr, ptr %5, align 8, !tbaa !35
  tail call void @llvm.memset.p0.i64(ptr noundef nonnull align 4 dereferenceable(1280) %6, i8 0, i64 1280, i1 false)
  %7 = getelementptr inbounds nuw i8, ptr %3, i64 7296
  %8 = load ptr, ptr %7, align 16, !tbaa !34
  tail call void @llvm.memset.p0.i64(ptr noundef nonnull align 4 dereferenceable(1280) %8, i8 0, i64 1280, i1 false)
  ret void
}